target datalayout = "e-m:e-p270:32:32-p271:32:32-p272:64:64-i64:64-i128:128-f80:128-n8:16:32:64-S128"
target triple = "x86_64-pc-linux-gnu"

%struct.evp_pkey_st = type { i32, i32, ptr, ptr, ptr, %union.legacy_pkey_st, %union.legacy_pkey_st, %struct.CRYPTO_REF_COUNT, ptr, ptr, i32, i8, %struct.crypto_ex_data_st, ptr, ptr, i64, ptr, i64, %struct.anon }
%union.legacy_pkey_st = type { ptr }
%struct.CRYPTO_REF_COUNT = type { i32 }
%struct.crypto_ex_data_st = type { ptr, ptr }
%struct.anon = type { i32, i32, i32 }
%struct.evp_pkey_asn1_method_st = type { i32, i32, i64, ptr, ptr, ptr, ptr, ptr, ptr, ptr, ptr, ptr, ptr, ptr, ptr, ptr, ptr, ptr, ptr, ptr, ptr, ptr, ptr, ptr, ptr, ptr, ptr, ptr, ptr, ptr, ptr, ptr, ptr, ptr, ptr, ptr, ptr, ptr, ptr, ptr, ptr }

@.str.1 = private unnamed_addr constant [4 x i8] c"PEM\00", align 1
@.str.2 = private unnamed_addr constant [15 x i8] c"PrivateKeyInfo\00", align 1

; Function Attrs: nounwind uwtable
define i32 @PEM_write_bio_PrivateKey_ex(ptr noundef %0, ptr noundef %1, ptr noundef %2, ptr noundef %3, i32 noundef %4, ptr noundef %5, ptr noundef %6, ptr noundef %7, ptr noundef %8) #0 {
  %10 = alloca i32, align 4
  %11 = alloca ptr, align 8
  %12 = alloca ptr, align 8
  %13 = alloca ptr, align 8
  %14 = alloca ptr, align 8
  %15 = alloca i32, align 4
  %16 = alloca ptr, align 8
  %17 = alloca ptr, align 8
  %18 = alloca ptr, align 8
  %19 = alloca ptr, align 8
  %20 = alloca i32, align 4
  %21 = alloca ptr, align 8
  %22 = alloca i32, align 4
  store ptr %0, ptr %11, align 8, !tbaa !3
  store ptr %1, ptr %12, align 8, !tbaa !17
  store ptr %2, ptr %13, align 8, !tbaa !21
  store ptr %3, ptr %14, align 8, !tbaa !13
  store i32 %4, ptr %15, align 4, !tbaa !15
  store ptr %5, ptr %16, align 8, !tbaa !10
  store ptr %6, ptr %17, align 8, !tbaa !10
  store ptr %7, ptr %18, align 8, !tbaa !11
  store ptr %8, ptr %19, align 8, !tbaa !13
  call void @llvm.lifetime.start.p0(i64 4, ptr %20) #6
  store i32 0, ptr %20, align 4, !tbaa !15
  call void @llvm.lifetime.start.p0(i64 8, ptr %21) #6
  %23 = load ptr, ptr %12, align 8, !tbaa !17
  %24 = load ptr, ptr %19, align 8, !tbaa !13
  %25 = call ptr @OSSL_ENCODER_CTX_new_for_pkey(ptr noundef %23, i32 noundef 135, ptr noundef @.str.1, ptr noundef @.str.2, ptr noundef %24)
  store ptr %25, ptr %21, align 8, !tbaa !23
  %26 = load ptr, ptr %21, align 8, !tbaa !23
  %27 = call i32 @OSSL_ENCODER_CTX_get_num_encoders(ptr noundef %26)
  %28 = icmp eq i32 %27, 0
  br i1 %28, label %29, label %31

29:                                               ; preds = %9
  %30 = load ptr, ptr %21, align 8, !tbaa !23
  call void @OSSL_ENCODER_CTX_free(ptr noundef %30)
  br label %91

31:                                               ; preds = %9
  store i32 1, ptr %20, align 4, !tbaa !15
  %32 = load ptr, ptr %14, align 8, !tbaa !13
  %33 = icmp eq ptr %32, null
  br i1 %33, label %34, label %47

34:                                               ; preds = %31
  %35 = load ptr, ptr %16, align 8, !tbaa !10
  %36 = icmp eq ptr %35, null
  br i1 %36, label %37, label %47

37:                                               ; preds = %34
  %38 = load ptr, ptr %17, align 8, !tbaa !10
  %39 = icmp ne ptr %38, null
  br i1 %39, label %40, label %45

40:                                               ; preds = %37
  %41 = load ptr, ptr %17, align 8, !tbaa !10
  store ptr %41, ptr %14, align 8, !tbaa !13
  %42 = load ptr, ptr %17, align 8, !tbaa !10
  %43 = call i64 @strlen(ptr noundef %42) #7
  %44 = trunc i64 %43 to i32
  store i32 %44, ptr %15, align 4, !tbaa !15
  br label %46

45:                                               ; preds = %37
  store ptr @PEM_def_callback, ptr %16, align 8, !tbaa !10
  br label %46

46:                                               ; preds = %45, %40
  br label %47

47:                                               ; preds = %46, %34, %31
  %48 = load ptr, ptr %13, align 8, !tbaa !21
  %49 = icmp ne ptr %48, null
  br i1 %49, label %50, label %80

50:                                               ; preds = %47
  store i32 0, ptr %20, align 4, !tbaa !15
  %51 = load ptr, ptr %21, align 8, !tbaa !23
  %52 = load ptr, ptr %13, align 8, !tbaa !21
  %53 = call ptr @EVP_CIPHER_get0_name(ptr noundef %52)
  %54 = call i32 @OSSL_ENCODER_CTX_set_cipher(ptr noundef %51, ptr noundef %53, ptr noundef null)
  %55 = icmp ne i32 %54, 0
  br i1 %55, label %56, label %79

56:                                               ; preds = %50
  store i32 1, ptr %20, align 4, !tbaa !15
  %57 = load ptr, ptr %14, align 8, !tbaa !13
  %58 = icmp ne ptr %57, null
  br i1 %58, label %59, label %67

59:                                               ; preds = %56
  %60 = load ptr, ptr %21, align 8, !tbaa !23
  %61 = load ptr, ptr %14, align 8, !tbaa !13
  %62 = load i32, ptr %15, align 4, !tbaa !15
  %63 = sext i32 %62 to i64
  %64 = call i32 @OSSL_ENCODER_CTX_set_passphrase(ptr noundef %60, ptr noundef %61, i64 noundef %63)
  %65 = icmp ne i32 %64, 0
  br i1 %65, label %67, label %66

66:                                               ; preds = %59
  store i32 0, ptr %20, align 4, !tbaa !15
  br label %78

67:                                               ; preds = %59, %56
  %68 = load ptr, ptr %16, align 8, !tbaa !10
  %69 = icmp ne ptr %68, null
  br i1 %69, label %70, label %77

70:                                               ; preds = %67
  %71 = load ptr, ptr %21, align 8, !tbaa !23
  %72 = load ptr, ptr %16, align 8, !tbaa !10
  %73 = load ptr, ptr %17, align 8, !tbaa !10
  %74 = call i32 @OSSL_ENCODER_CTX_set_pem_password_cb(ptr noundef %71, ptr noundef %72, ptr noundef %73)
  %75 = icmp ne i32 %74, 0
  br i1 %75, label %77, label %76

76:                                               ; preds = %70
  store i32 0, ptr %20, align 4, !tbaa !15
  br label %77

77:                                               ; preds = %76, %70, %67
  br label %78

78:                                               ; preds = %77, %66
  br label %79

79:                                               ; preds = %78, %50
  br label %80

80:                                               ; preds = %79, %47
  %81 = load i32, ptr %20, align 4, !tbaa !15
  %82 = icmp ne i32 %81, 0
  br i1 %82, label %85, label %83

83:                                               ; preds = %80
  %84 = load ptr, ptr %21, align 8, !tbaa !23
  call void @OSSL_ENCODER_CTX_free(ptr noundef %84)
  store i32 0, ptr %10, align 4
  store i32 1, ptr %22, align 4
  br label %124

85:                                               ; preds = %80
  %86 = load ptr, ptr %21, align 8, !tbaa !23
  %87 = load ptr, ptr %11, align 8, !tbaa !3
  %88 = call i32 @OSSL_ENCODER_to_bio(ptr noundef %86, ptr noundef %87)
  store i32 %88, ptr %20, align 4, !tbaa !15
  %89 = load ptr, ptr %21, align 8, !tbaa !23
  call void @OSSL_ENCODER_CTX_free(ptr noundef %89)
  %90 = load i32, ptr %20, align 4, !tbaa !15
  store i32 %90, ptr %10, align 4
  store i32 1, ptr %22, align 4
  br label %124

91:                                               ; preds = %29
  %92 = load ptr, ptr %12, align 8, !tbaa !17
  %93 = icmp ne ptr %92, null
  br i1 %93, label %94, label %115

94:                                               ; preds = %91
  %95 = load ptr, ptr %12, align 8, !tbaa !17
  %96 = getelementptr inbounds nuw %struct.evp_pkey_st, ptr %95, i32 0, i32 2
  %97 = load ptr, ptr %96, align 8, !tbaa !25
  %98 = icmp eq ptr %97, null
  br i1 %98, label %106, label %99

99:                                               ; preds = %94
  %100 = load ptr, ptr %12, align 8, !tbaa !17
  %101 = getelementptr inbounds nuw %struct.evp_pkey_st, ptr %100, i32 0, i32 2
  %102 = load ptr, ptr %101, align 8, !tbaa !25
  %103 = getelementptr inbounds nuw %struct.evp_pkey_asn1_method_st, ptr %102, i32 0, i32 10
  %104 = load ptr, ptr %103, align 8, !tbaa !37
  %105 = icmp ne ptr %104, null
  br i1 %105, label %106, label %115

106:                                              ; preds = %99, %94
  %107 = load ptr, ptr %11, align 8, !tbaa !3
  %108 = load ptr, ptr %12, align 8, !tbaa !17
  %109 = load ptr, ptr %13, align 8, !tbaa !21
  %110 = load ptr, ptr %14, align 8, !tbaa !13
  %111 = load i32, ptr %15, align 4, !tbaa !15
  %112 = load ptr, ptr %16, align 8, !tbaa !10
  %113 = load ptr, ptr %17, align 8, !tbaa !10
  %114 = call i32 @PEM_write_bio_PKCS8PrivateKey(ptr noundef %107, ptr noundef %108, ptr noundef %109, ptr noundef %110, i32 noundef %111, ptr noundef %112, ptr noundef %113)
  store i32 %114, ptr %10, align 4
  store i32 1, ptr %22, align 4
  br label %124

115:                                              ; preds = %99, %91
  %116 = load ptr, ptr %11, align 8, !tbaa !3
  %117 = load ptr, ptr %12, align 8, !tbaa !17
  %118 = load ptr, ptr %13, align 8, !tbaa !21
  %119 = load ptr, ptr %14, align 8, !tbaa !13
  %120 = load i32, ptr %15, align 4, !tbaa !15
  %121 = load ptr, ptr %16, align 8, !tbaa !10
  %122 = load ptr, ptr %17, align 8, !tbaa !10
  %123 = call i32 @PEM_write_bio_PrivateKey_traditional(ptr noundef %116, ptr noundef %117, ptr noundef %118, ptr noundef %119, i32 noundef %120, ptr noundef %121, ptr noundef %122)
  store i32 %123, ptr %10, align 4
  store i32 1, ptr %22, align 4
  br label %124

124:                                              ; preds = %115, %106, %85, %83
  call void @llvm.lifetime.end.p0(i64 8, ptr %21) #6
  call void @llvm.lifetime.end.p0(i64 4, ptr %20) #6
  %125 = load i32, ptr %10, align 4
  ret i32 %125
}