; Function Attrs: nounwind uwtable
define i32 @PEM_write_bio_PrivateKey_ex(ptr noundef %0, ptr noundef %1, ptr noundef %2, ptr noundef %3, i32 noundef %4, ptr noundef %5, ptr noundef %6, ptr readnone captures(none) %7, ptr noundef %8) local_unnamed_addr #0 {
  %10 = tail call ptr @OSSL_ENCODER_CTX_new_for_pkey(ptr noundef %1, i32 noundef 135, ptr noundef nonnull @.str.1, ptr noundef nonnull @.str.2, ptr noundef %8) #6
  %11 = tail call i32 @OSSL_ENCODER_CTX_get_num_encoders(ptr noundef %10) #6
  %12 = icmp eq i32 %11, 0
  br i1 %12, label %13, label %14

13:                                               ; preds = %9
  tail call void @OSSL_ENCODER_CTX_free(ptr noundef %10) #6
  %.not62 = icmp eq ptr %1, null
  br i1 %.not62, label %.split, label %33

14:                                               ; preds = %9
  %15 = icmp eq ptr %3, null
  %16 = icmp eq ptr %5, null
  %or.cond = and i1 %15, %16
  br i1 %or.cond, label %17, label %21

17:                                               ; preds = %14
  %.not = icmp eq ptr %6, null
  br i1 %.not, label %21, label %18

18:                                               ; preds = %17
  %19 = tail call i64 @strlen(ptr noundef nonnull dereferenceable(1) %6) #7
  %20 = trunc i64 %19 to i32
  br label %21

21:                                               ; preds = %17, %18, %14
  %.047 = phi ptr [ null, %18 ], [ %5, %14 ], [ @PEM_def_callback, %17 ]
  %.046 = phi i32 [ %20, %18 ], [ %4, %14 ], [ %4, %17 ]
  %.045 = phi ptr [ %6, %18 ], [ %3, %14 ], [ null, %17 ]
  %.not55 = icmp eq ptr %2, null
  br i1 %.not55, label %.critedge, label %22

22:                                               ; preds = %21
  %23 = tail call ptr @EVP_CIPHER_get0_name(ptr noundef nonnull %2) #6
  %24 = tail call i32 @OSSL_ENCODER_CTX_set_cipher(ptr noundef %10, ptr noundef %23, ptr noundef null) #6
  %.not56 = icmp eq i32 %24, 0
  br i1 %.not56, label %.critedge65, label %25

25:                                               ; preds = %22
  %.not57 = icmp eq ptr %.045, null
  br i1 %.not57, label %29, label %26

26:                                               ; preds = %25
  %27 = sext i32 %.046 to i64
  %28 = tail call i32 @OSSL_ENCODER_CTX_set_passphrase(ptr noundef %10, ptr noundef nonnull %.045, i64 noundef %27) #6
  %.not58 = icmp eq i32 %28, 0
  br i1 %.not58, label %.critedge65, label %29

29:                                               ; preds = %26, %25
  %.not59 = icmp eq ptr %.047, null
  br i1 %.not59, label %.critedge, label %30

30:                                               ; preds = %29
  %31 = tail call i32 @OSSL_ENCODER_CTX_set_pem_password_cb(ptr noundef %10, ptr noundef nonnull %.047, ptr noundef %6) #6
  %.not60 = icmp eq i32 %31, 0
  br i1 %.not60, label %.critedge65, label %.critedge

.critedge65:                                      ; preds = %22, %26, %30
  tail call void @OSSL_ENCODER_CTX_free(ptr noundef %10) #6
  br label %.split

.critedge:                                        ; preds = %29, %21, %30
  %32 = tail call i32 @OSSL_ENCODER_to_bio(ptr noundef %10, ptr noundef %0) #6
  tail call void @OSSL_ENCODER_CTX_free(ptr noundef %10) #6
  br label %.split

33:                                               ; preds = %13
  %34 = getelementptr inbounds nuw i8, ptr %1, i64 8
  %35 = load ptr, ptr %34, align 8, !tbaa !18
  %36 = icmp eq ptr %35, null
  br i1 %36, label %41, label %37

37:                                               ; preds = %33
  %38 = getelementptr inbounds nuw i8, ptr %35, i64 72
  %39 = load ptr, ptr %38, align 8, !tbaa !30
  %.not63 = icmp eq ptr %39, null
  br i1 %.not63, label %.split48, label %41

.split48:                                         ; preds = %37
  %40 = tail call i32 @PEM_write_bio_PrivateKey_traditional(ptr noundef %0, ptr noundef nonnull %1, ptr noundef %2, ptr noundef %3, i32 noundef %4, ptr noundef %5, ptr noundef %6)
  br label %.split

41:                                               ; preds = %37, %33
  %42 = tail call i32 @PEM_write_bio_PKCS8PrivateKey(ptr noundef %0, ptr noundef nonnull %1, ptr noundef %2, ptr noundef %3, i32 noundef %4, ptr noundef %5, ptr noundef %6) #6
  br label %.split

.split:                                           ; preds = %13, %.split48, %41, %.critedge, %.critedge65
  %.0 = phi i32 [ %42, %41 ], [ %32, %.critedge ], [ 0, %.critedge65 ], [ %40, %.split48 ], [ 0, %13 ]
  ret i32 %.0
}